; Function Attrs: mustprogress nofree norecurse nosync nounwind willreturn memory(write, argmem: readwrite, inaccessiblemem: none) uwtable
define hidden range(i32 -108, 4) i32 @mbedtls_asn1_write_bool(ptr noundef captures(none) %0, ptr noundef %1, i32 noundef %2) local_unnamed_addr #1 {
  %4 = load ptr, ptr %0, align 8, !tbaa !5
  %5 = ptrtoint ptr %4 to i64
  %6 = ptrtoint ptr %1 to i64
  %7 = sub i64 %5, %6
  %8 = icmp slt i64 %7, 1
  br i1 %8, label %mbedtls_asn1_write_len_and_tag.exit, label %9

9:                                                ; preds = %3
  %.not = icmp ne i32 %2, 0
  %10 = sext i1 %.not to i8
  %11 = getelementptr inbounds i8, ptr %4, i64 -1
  store ptr %11, ptr %0, align 8, !tbaa !5
  store i8 %10, ptr %11, align 1, !tbaa !10
  %12 = load ptr, ptr %0, align 8, !tbaa !5
  %13 = ptrtoint ptr %12 to i64
  %14 = sub i64 %13, %6
  %15 = icmp slt i64 %14, 1
  br i1 %15, label %mbedtls_asn1_write_len_and_tag.exit, label %.preheader.i.i

.preheader.i.i:                                   ; preds = %9
  %16 = getelementptr inbounds i8, ptr %12, i64 -1
  store ptr %16, ptr %0, align 8, !tbaa !5
  store i8 1, ptr %16, align 1, !tbaa !10
  %17 = load ptr, ptr %0, align 8, !tbaa !5
  %18 = ptrtoint ptr %17 to i64
  %19 = sub i64 %18, %6
  %20 = icmp slt i64 %19, 1
  br i1 %20, label %mbedtls_asn1_write_len_and_tag.exit, label %21

21:                                               ; preds = %.preheader.i.i
  %22 = getelementptr inbounds i8, ptr %17, i64 -1
  store ptr %22, ptr %0, align 8, !tbaa !5
  store i8 1, ptr %22, align 1, !tbaa !10
  br label %mbedtls_asn1_write_len_and_tag.exit

mbedtls_asn1_write_len_and_tag.exit:              ; preds = %21, %.preheader.i.i, %9, %3
  %.0 = phi i32 [ -108, %3 ], [ 3, %21 ], [ -108, %9 ], [ -108, %.preheader.i.i ]
  ret i32 %.0
}